#include <math.h>
#include <stdio.h>
#include <stdlib.h>
#include <string.h>

int count;
void f(int a ,int b)
{
	int j;
	if(a==1)
		count+=1;
	else
	{
		for(j=b;j<=a;j++)
		{
			if(a%j==0)
				f(a/j,j);
		}
	}
}
int main()
{
	int n,i,number;
	scanf("%d",&n);
	for(i=0;i<n;i++)
	{
		count=0;
		scanf("%d",&number);
		f(number,2);
		printf("%d\n",count);
	}
	return 0;
}
